target datalayout = "e-m:e-p270:32:32-p271:32:32-p272:64:64-i64:64-i128:128-f80:128-n8:16:32:64-S128"
target triple = "x86_64-pc-linux-gnu"

%struct.IOStreamStdioData = type { ptr, i8, i8 }

@.str.23 = private unnamed_addr constant [30 x i8] c"Error flushing datastream: %s\00", align 1

; Function Attrs: nounwind uwtable
define internal i32 @SDL_fdatasync(i32 noundef %0) #0 {
  %2 = alloca i32, align 4
  %3 = alloca i32, align 4
  store i32 %0, ptr %2, align 4
  call void @llvm.lifetime.start.p0(i64 4, ptr %3) #11
  store i32 0, ptr %3, align 4
  %4 = load i32, ptr %2, align 4
  %5 = call i32 @fdatasync(i32 noundef %4)
  store i32 %5, ptr %3, align 4
  %6 = load i32, ptr %3, align 4
  call void @llvm.lifetime.end.p0(i64 4, ptr %3) #11
  ret i32 %6
}

; Function Attrs: nounwind uwtable
define internal zeroext i1 @stdio_flush(ptr noundef %0, ptr noundef %1) #0 {
  %3 = alloca i1, align 1
  %4 = alloca ptr, align 8
  %5 = alloca ptr, align 8
  %6 = alloca ptr, align 8
  %7 = alloca i32, align 4
  %8 = alloca i32, align 4
  %9 = alloca i32, align 4
  store ptr %0, ptr %4, align 8
  store ptr %1, ptr %5, align 8
  call void @llvm.lifetime.start.p0(i64 8, ptr %6) #11
  %10 = load ptr, ptr %4, align 8
  store ptr %10, ptr %6, align 8
  %11 = load ptr, ptr %6, align 8
  %12 = getelementptr inbounds nuw %struct.IOStreamStdioData, ptr %11, i32 0, i32 0
  %13 = load ptr, ptr %12, align 8
  %14 = call i32 @fflush(ptr noundef %13)
  %15 = icmp ne i32 %14, 0
  br i1 %15, label %16, label %27

16:                                               ; preds = %2
  %17 = call ptr @__errno_location() #13
  %18 = load i32, ptr %17, align 4
  %19 = icmp eq i32 %18, 11
  br i1 %19, label %20, label %22

20:                                               ; preds = %16
  %21 = load ptr, ptr %5, align 8
  store i32 3, ptr %21, align 4
  store i1 false, ptr %3, align 1
  store i32 1, ptr %7, align 4
  br label %54

22:                                               ; preds = %16
  %23 = call ptr @__errno_location() #13
  %24 = load i32, ptr %23, align 4
  %25 = call ptr @strerror(i32 noundef %24) #11
  %26 = call zeroext i1 (ptr, ...) @SDL_SetError_REAL(ptr noundef @.str.23, ptr noundef %25)
  store i1 %26, ptr %3, align 1
  store i32 1, ptr %7, align 4
  br label %54

27:                                               ; preds = %2
  call void @llvm.lifetime.start.p0(i64 4, ptr %8) #11
  call void @llvm.lifetime.start.p0(i64 4, ptr %9) #11
  %28 = load ptr, ptr %6, align 8
  %29 = getelementptr inbounds nuw %struct.IOStreamStdioData, ptr %28, i32 0, i32 0
  %30 = load ptr, ptr %29, align 8
  %31 = call i32 @fileno(ptr noundef %30) #11
  store i32 %31, ptr %9, align 4
  br label %32

32:                                               ; preds = %42, %27
  %33 = load i32, ptr %9, align 4
  %34 = call i32 @SDL_fdatasync(i32 noundef %33)
  store i32 %34, ptr %8, align 4
  br label %35

35:                                               ; preds = %32
  %36 = load i32, ptr %8, align 4
  %37 = icmp slt i32 %36, 0
  br i1 %37, label %38, label %42

38:                                               ; preds = %35
  %39 = call ptr @__errno_location() #13
  %40 = load i32, ptr %39, align 4
  %41 = icmp eq i32 %40, 4
  br label %42

42:                                               ; preds = %38, %35
  %43 = phi i1 [ false, %35 ], [ %41, %38 ]
  br i1 %43, label %32, label %44, !llvm.loop !9

44:                                               ; preds = %42
  %45 = load i32, ptr %8, align 4
  %46 = icmp slt i32 %45, 0
  br i1 %46, label %47, label %52

47:                                               ; preds = %44
  %48 = call ptr @__errno_location() #13
  %49 = load i32, ptr %48, align 4
  %50 = call ptr @strerror(i32 noundef %49) #11
  %51 = call zeroext i1 (ptr, ...) @SDL_SetError_REAL(ptr noundef @.str.23, ptr noundef %50)
  store i1 %51, ptr %3, align 1
  store i32 1, ptr %7, align 4
  br label %53

52:                                               ; preds = %44
  store i1 true, ptr %3, align 1
  store i32 1, ptr %7, align 4
  br label %53

53:                                               ; preds = %52, %47
  call void @llvm.lifetime.end.p0(i64 4, ptr %9) #11
  call void @llvm.lifetime.end.p0(i64 4, ptr %8) #11
  br label %54

54:                                               ; preds = %53, %22, %20
  call void @llvm.lifetime.end.p0(i64 8, ptr %6) #11
  %55 = load i1, ptr %3, align 1
  ret i1 %55
}