; Function Attrs: nounwind uwtable
define internal zeroext i1 @stdio_flush(ptr noundef readonly captures(none) %0, ptr noundef writeonly captures(none) %1) #0 {
  %3 = load ptr, ptr %0, align 8
  %4 = tail call i32 @fflush(ptr noundef %3)
  %.not = icmp eq i32 %4, 0
  br i1 %.not, label %13, label %5

5:                                                ; preds = %2
  %6 = tail call ptr @__errno_location() #19
  %7 = load i32, ptr %6, align 4
  %8 = icmp eq i32 %7, 11
  br i1 %8, label %9, label %10

9:                                                ; preds = %5
  store i32 3, ptr %1, align 4
  br label %.critedge8

10:                                               ; preds = %5
  %11 = tail call ptr @strerror(i32 noundef %7) #18
  %12 = tail call zeroext i1 (ptr, ...) @SDL_SetError_REAL(ptr noundef nonnull @.str.23, ptr noundef %11) #18
  br label %.critedge8

13:                                               ; preds = %2
  %14 = load ptr, ptr %0, align 8
  %15 = tail call i32 @fileno(ptr noundef %14) #18
  br label %16

16:                                               ; preds = %19, %13
  %17 = tail call i32 @fdatasync(i32 noundef %15) #18
  %18 = icmp slt i32 %17, 0
  br i1 %18, label %19, label %.critedge8

19:                                               ; preds = %16
  %20 = tail call ptr @__errno_location() #19
  %21 = load i32, ptr %20, align 4
  %22 = icmp eq i32 %21, 4
  br i1 %22, label %16, label %.critedge, !llvm.loop !7

.critedge:                                        ; preds = %19
  %23 = tail call ptr @strerror(i32 noundef %21) #18
  %24 = tail call zeroext i1 (ptr, ...) @SDL_SetError_REAL(ptr noundef nonnull @.str.23, ptr noundef %23) #18
  br label %.critedge8

.critedge8:                                       ; preds = %16, %.critedge, %10, %9
  %.0 = phi i1 [ false, %9 ], [ %12, %10 ], [ %24, %.critedge ], [ true, %16 ]
  ret i1 %.0
}